Certificate:
    Data:
        Version: 3 (0x2)
        Serial Number: 17 (0x11)
        Signature Algorithm: sha256WithRSAEncryption
        Issuer: C=zh, ST=sc, L=cd, O=uestc, OU=uestc, CN=tinoryj/emailAddress=tinoryj@gmail.com
        Validity
            Not Before: Jul 12 03:46:41 2019 GMT
            Not After : Jul 11 03:46:41 2020 GMT
        Subject: C=zh, ST=sc, O=uestc, OU=uestc, CN=tinoryj/emailAddress=tinoryj@gmail.com
        Subject Public Key Info:
            Public Key Algorithm: rsaEncryption
                RSA Public-Key: (1024 bit)
                Modulus:
                    00:a9:4f:76:99:ff:cb:48:a8:b7:13:cc:8c:c3:1f:
                    24:b7:2e:1c:91:34:d9:87:ac:f5:49:f0:39:4c:9a:
                    ef:69:b4:8b:da:b9:5d:23:16:ec:bf:1b:58:16:8d:
                    09:ee:3c:49:ad:13:64:0b:f3:74:6a:46:66:e8:e6:
                    1d:ae:91:a2:88:44:67:d2:a6:72:69:eb:3b:76:7a:
                    84:e5:80:4c:39:00:38:8c:c5:8d:11:ad:d8:7d:82:
                    c1:c8:5d:6f:f1:a0:ca:76:d7:39:cf:09:61:7e:24:
                    4e:6d:9d:06:37:e2:f6:54:5b:2a:83:6f:36:77:8a:
                    fa:02:9d:3b:03:05:d1:7c:f3
                Exponent: 65537 (0x10001)
        X509v3 extensions:
            X509v3 Basic Constraints: 
                CA:FALSE
            Netscape Comment: 
                OpenSSL Generated Certificate
            X509v3 Subject Key Identifier: 
                38:A8:EF:A9:9E:4B:EA:30:B5:05:16:1E:1A:41:52:C6:E0:5D:B5:EC
            X509v3 Authority Key Identifier: 
                keyid:4D:54:BE:FA:75:49:59:D4:B5:37:A6:DA:A8:8D:BA:A0:4F:2A:9C:73

    Signature Algorithm: sha256WithRSAEncryption
         c9:a8:c8:82:f0:ce:1c:4c:9c:4e:02:b7:1f:66:a1:b6:bf:8d:
         4f:15:e1:62:ff:93:d0:c3:15:70:8e:16:c6:2e:7d:59:80:68:
         d9:24:e9:4d:90:43:cb:cd:22:20:7d:28:e0:93:1c:fa:cf:76:
         95:27:5c:cc:6e:51:24:77:b7:77:c8:a4:fb:1c:f6:19:a5:6d:
         8b:43:09:c1:e7:47:a0:01:88:d7:70:0e:1b:33:60:27:83:bc:
         5c:4e:ec:e6:72:53:df:2d:98:64:9b:03:4a:07:07:75:46:52:
         12:98:cd:a1:37:fc:8b:03:28:bd:76:ab:a0:dd:dc:b9:c7:d9:
         a1:32:c2:6c:c1:f3:79:f2:e7:5a:db:ff:d2:1c:15:aa:63:8e:
         8c:21:5d:6a:76:d7:48:94:42:b7:65:93:38:41:17:f7:b3:79:
         91:ed:8e:63:0c:55:9b:af:15:1e:b7:e1:73:2b:3c:e7:d9:99:
         83:70:a3:14:96:c6:40:38:b5:cc:c7:06:f6:d3:e0:e3:46:40:
         e3:4a:5f:65:8a:e0:b0:86:00:77:05:62:e7:3c:af:14:2a:ab:
         36:a9:57:48:3b:80:1d:9c:3e:8b:05:3a:fa:bc:5f:fe:2e:f8:
         d6:b1:51:04:02:b8:83:fa:f6:ac:15:41:db:71:ca:96:72:2a:
         b4:bf:f7:06
-----BEGIN CERTIFICATE-----
MIIDWzCCAkOgAwIBAgIBETANBgkqhkiG9w0BAQsFADB7MQswCQYDVQQGEwJ6aDEL
MAkGA1UECAwCc2MxCzAJBgNVBAcMAmNkMQ4wDAYDVQQKDAV1ZXN0YzEOMAwGA1UE
CwwFdWVzdGMxEDAOBgNVBAMMB3Rpbm9yeWoxIDAeBgkqhkiG9w0BCQEWEXRpbm9y
eWpAZ21haWwuY29tMB4XDTE5MDcxMjAzNDY0MVoXDTIwMDcxMTAzNDY0MVowbjEL
MAkGA1UEBhMCemgxCzAJBgNVBAgMAnNjMQ4wDAYDVQQKDAV1ZXN0YzEOMAwGA1UE
CwwFdWVzdGMxEDAOBgNVBAMMB3Rpbm9yeWoxIDAeBgkqhkiG9w0BCQEWEXRpbm9y
eWpAZ21haWwuY29tMIGfMA0GCSqGSIb3DQEBAQUAA4GNADCBiQKBgQCpT3aZ/8tI
qLcTzIzDHyS3LhyRNNmHrPVJ8DlMmu9ptIvauV0jFuy/G1gWjQnuPEmtE2QL83Rq
Rmbo5h2ukaKIRGfSpnJp6zt2eoTlgEw5ADiMxY0Rrdh9gsHIXW/xoMp21znPCWF+
JE5tnQY34vZUWyqDbzZ3ivoCnTsDBdF88wIDAQABo3sweTAJBgNVHRMEAjAAMCwG
CWCGSAGG+EIBDQQfFh1PcGVuU1NMIEdlbmVyYXRlZCBDZXJ0aWZpY2F0ZTAdBgNV
HQ4EFgQUOKjvqZ5L6jC1BRYeGkFSxuBdtewwHwYDVR0jBBgwFoAUTVS++nVJWdS1
N6baqI26oE8qnHMwDQYJKoZIhvcNAQELBQADggEBAMmoyILwzhxMnE4Ctx9moba/
jU8V4WL/k9DDFXCOFsYufVmAaNkk6U2QQ8vNIiB9KOCTHPrPdpUnXMxuUSR3t3fI
pPsc9hmlbYtDCcHnR6ABiNdwDhszYCeDvFxO7OZyU98tmGSbA0oHB3VGUhKYzaE3
/IsDKL12q6Dd3LnH2aEywmzB83ny51rb/9IcFapjjowhXWp210iUQrdlkzhBF/ez
eZHtjmMMVZuvFR634XMrPOfZmYNwoxSWxkA4tczHBvbT4ONGQONKX2WK4LCGAHcF
Yuc8rxQqqzapV0g7gB2cPosFOvq8X/4u+NaxUQQCuIP69qwVQdtxypZyKrS/9wY=
-----END CERTIFICATE-----
